; Function Attrs: mustprogress nofree norecurse nosync nounwind willreturn memory(argmem: read) uwtable
define dso_local noundef range(i32 0, 1073741824) i32 @_ZNK4Luau7CodeGen3A6418AssemblyBuilderA6419getInstructionCountEv(ptr noundef nonnull readonly align 8 captures(none) dereferenceable(176) %0) local_unnamed_addr #4 align 2 {
  %2 = getelementptr inbounds nuw i8, ptr %0, i64 160
  %3 = load ptr, ptr %2, align 8, !tbaa !39
  %4 = getelementptr inbounds nuw i8, ptr %0, i64 24
  %5 = load ptr, ptr %4, align 8, !tbaa !38
  %6 = ptrtoint ptr %3 to i64
  %7 = ptrtoint ptr %5 to i64
  %8 = sub i64 %6, %7
  %sum.shift = lshr i64 %8, 4
  %9 = trunc i64 %sum.shift to i32
  %10 = and i32 %9, 1073741823
  ret i32 %10
}